; Function Attrs: nounwind uwtable
define void @zend_error_at(i32 noundef %0, ptr noundef %1, i32 noundef %2, ptr noundef %3, ...) local_unnamed_addr #0 {
  %5 = alloca ptr, align 8
  %6 = alloca [1 x %struct.__va_list_tag], align 16
  %7 = alloca i32, align 4
  store ptr %1, ptr %5, align 8
  %.not = icmp eq ptr %1, null
  br i1 %.not, label %8, label %9

8:                                                ; preds = %4
  call fastcc void @get_filename_lineno(i32 noundef %0, ptr noundef nonnull %5, ptr noundef nonnull %7)
  %.pre = load ptr, ptr %5, align 8
  br label %9

9:                                                ; preds = %8, %4
  %10 = phi ptr [ %.pre, %8 ], [ %1, %4 ]
  call void @llvm.va_start(ptr nonnull %6)
  %11 = call ptr @zend_vstrpprintf(i64 noundef 0, ptr noundef %3, ptr noundef nonnull %6)
  call void @zend_error_zstr_at(i32 noundef %0, ptr noundef %10, i32 noundef %2, ptr noundef %11)
  %12 = getelementptr inbounds i8, ptr %11, i64 4
  %13 = load i32, ptr %12, align 4
  %14 = and i32 %13, 64
  %.not.i = icmp eq i32 %14, 0
  br i1 %.not.i, label %15, label %zend_error_va_list.exit

15:                                               ; preds = %9
  %16 = load i32, ptr %11, align 4
  %17 = icmp ne i32 %16, 0
  call void @llvm.assume(i1 %17)
  %18 = add i32 %16, -1
  store i32 %18, ptr %11, align 4
  %19 = icmp eq i32 %18, 0
  br i1 %19, label %20, label %zend_error_va_list.exit

20:                                               ; preds = %15
  %21 = and i32 %13, 128
  %.not15.i = icmp eq i32 %21, 0
  br i1 %.not15.i, label %23, label %22

22:                                               ; preds = %20
  call void @free(ptr noundef nonnull %11) #30
  br label %zend_error_va_list.exit

23:                                               ; preds = %20
  call void @_efree(ptr noundef nonnull %11) #30
  br label %zend_error_va_list.exit

zend_error_va_list.exit:                          ; preds = %9, %15, %22, %23
  call void @llvm.va_end(ptr nonnull %6)
  ret void
}